; Function Attrs: mustprogress uwtable
define void @_ZNK14ProtoTreeModel5indexEiiRK11QModelIndex(ptr dead_on_unwind noalias nocapture writable writeonly sret(%class.QModelIndex) align 8 %0, ptr noundef nonnull align 8 dereferenceable(24) %1, i32 noundef %2, i32 noundef %3, ptr nocapture noundef nonnull readonly align 8 dereferenceable(24) %4) unnamed_addr #0 align 2 {
_ZNK11QModelIndex7isValidEv.exit.thread:
  %5 = getelementptr inbounds i8, ptr %1, i64 16
  %6 = load ptr, ptr %5, align 8
  %7 = load i32, ptr %4, align 8
  %8 = icmp sgt i32 %7, -1
  %9 = getelementptr inbounds i8, ptr %4, i64 4
  %10 = load i32, ptr %9, align 4
  %11 = icmp sgt i32 %10, -1
  %or.cond.i = select i1 %8, i1 %11, i1 false
  %12 = getelementptr inbounds i8, ptr %4, i64 16
  %13 = load ptr, ptr %12, align 8
  %14 = icmp ne ptr %13, null
  %or.cond = select i1 %or.cond.i, i1 %14, i1 false
  %15 = getelementptr inbounds i8, ptr %4, i64 8
  %16 = load i64, ptr %15, align 8
  %17 = inttoptr i64 %16 to ptr
  %.0 = select i1 %or.cond, ptr %17, ptr %6
  %18 = tail call noundef zeroext i1 @_ZNK9ProtoNode7isValidEv(ptr noundef nonnull align 8 dereferenceable(40) %.0)
  %19 = getelementptr inbounds i8, ptr %0, i64 8
  br i1 %18, label %22, label %20

20:                                               ; preds = %_ZNK11QModelIndex7isValidEv.exit.thread
  store i32 -1, ptr %0, align 8
  %21 = getelementptr inbounds i8, ptr %0, i64 4
  store i32 -1, ptr %21, align 4
  tail call void @llvm.memset.p0.i64(ptr noundef nonnull align 8 dereferenceable(16) %19, i8 0, i64 16, i1 false)
  br label %29

22:                                               ; preds = %_ZNK11QModelIndex7isValidEv.exit.thread
  %23 = tail call noundef ptr @_ZN9ProtoNode5childEi(ptr noundef nonnull align 8 dereferenceable(40) %.0, i32 noundef %2)
  %.not = icmp eq ptr %23, null
  %24 = getelementptr inbounds i8, ptr %0, i64 4
  br i1 %.not, label %25, label %26

25:                                               ; preds = %22
  store i32 -1, ptr %0, align 8
  store i32 -1, ptr %24, align 4
  tail call void @llvm.memset.p0.i64(ptr noundef nonnull align 8 dereferenceable(16) %19, i8 0, i64 16, i1 false)
  br label %29

26:                                               ; preds = %22
  store i32 %2, ptr %0, align 8, !alias.scope !4
  store i32 0, ptr %24, align 4, !alias.scope !4
  %27 = ptrtoint ptr %23 to i64
  store i64 %27, ptr %19, align 8, !alias.scope !4
  %28 = getelementptr inbounds i8, ptr %0, i64 16
  store ptr %1, ptr %28, align 8, !alias.scope !4
  br label %29

29:                                               ; preds = %26, %25, %20
  ret void
}